target datalayout = "e-m:e-p270:32:32-p271:32:32-p272:64:64-i64:64-i128:128-f80:128-n8:16:32:64-S128"
target triple = "x86_64-pc-linux-gnu"

%struct.StringSlice_ = type { ptr, i64 }

; Function Attrs: nounwind uwtable
define dso_local { ptr, i64 } @slice_next_token(ptr noundef %0, i8 noundef signext %1) #0 {
  %3 = alloca %struct.StringSlice_, align 8
  %4 = alloca ptr, align 8
  %5 = alloca i8, align 1
  %6 = alloca i64, align 8
  store ptr %0, ptr %4, align 8
  store i8 %1, ptr %5, align 1
  store i64 0, ptr %6, align 8
  br label %7

7:                                                ; preds = %48, %2
  %8 = load i64, ptr %6, align 8
  %9 = load ptr, ptr %4, align 8
  %10 = getelementptr inbounds %struct.StringSlice_, ptr %9, i32 0, i32 1
  %11 = load i64, ptr %10, align 8
  %12 = icmp ult i64 %8, %11
  br i1 %12, label %13, label %51

13:                                               ; preds = %7
  %14 = load ptr, ptr %4, align 8
  %15 = getelementptr inbounds %struct.StringSlice_, ptr %14, i32 0, i32 0
  %16 = load ptr, ptr %15, align 8
  %17 = load i64, ptr %6, align 8
  %18 = getelementptr inbounds i8, ptr %16, i64 %17
  %19 = load i8, ptr %18, align 1
  %20 = sext i8 %19 to i32
  %21 = load i8, ptr %5, align 1
  %22 = sext i8 %21 to i32
  %23 = icmp eq i32 %20, %22
  br i1 %23, label %24, label %47

24:                                               ; preds = %13
  %25 = getelementptr inbounds %struct.StringSlice_, ptr %3, i32 0, i32 0
  %26 = load ptr, ptr %4, align 8
  %27 = getelementptr inbounds %struct.StringSlice_, ptr %26, i32 0, i32 0
  %28 = load ptr, ptr %27, align 8
  store ptr %28, ptr %25, align 8
  %29 = getelementptr inbounds %struct.StringSlice_, ptr %3, i32 0, i32 1
  %30 = load i64, ptr %6, align 8
  store i64 %30, ptr %29, align 8
  %31 = load ptr, ptr %4, align 8
  %32 = getelementptr inbounds %struct.StringSlice_, ptr %31, i32 0, i32 0
  %33 = load ptr, ptr %32, align 8
  %34 = load i64, ptr %6, align 8
  %35 = getelementptr inbounds i8, ptr %33, i64 %34
  %36 = getelementptr inbounds i8, ptr %35, i64 1
  %37 = load ptr, ptr %4, align 8
  %38 = getelementptr inbounds %struct.StringSlice_, ptr %37, i32 0, i32 0
  store ptr %36, ptr %38, align 8
  %39 = load ptr, ptr %4, align 8
  %40 = getelementptr inbounds %struct.StringSlice_, ptr %39, i32 0, i32 1
  %41 = load i64, ptr %40, align 8
  %42 = load i64, ptr %6, align 8
  %43 = sub i64 %41, %42
  %44 = sub i64 %43, 1
  %45 = load ptr, ptr %4, align 8
  %46 = getelementptr inbounds %struct.StringSlice_, ptr %45, i32 0, i32 1
  store i64 %44, ptr %46, align 8
  br label %64

47:                                               ; preds = %13
  br label %48

48:                                               ; preds = %47
  %49 = load i64, ptr %6, align 8
  %50 = add i64 %49, 1
  store i64 %50, ptr %6, align 8
  br label %7, !llvm.loop !18

51:                                               ; preds = %7
  %52 = load ptr, ptr %4, align 8
  call void @llvm.memcpy.p0.p0.i64(ptr align 8 %3, ptr align 8 %52, i64 16, i1 false)
  %53 = load ptr, ptr %4, align 8
  %54 = getelementptr inbounds %struct.StringSlice_, ptr %53, i32 0, i32 0
  %55 = load ptr, ptr %54, align 8
  %56 = load ptr, ptr %4, align 8
  %57 = getelementptr inbounds %struct.StringSlice_, ptr %56, i32 0, i32 1
  %58 = load i64, ptr %57, align 8
  %59 = getelementptr inbounds i8, ptr %55, i64 %58
  %60 = load ptr, ptr %4, align 8
  %61 = getelementptr inbounds %struct.StringSlice_, ptr %60, i32 0, i32 0
  store ptr %59, ptr %61, align 8
  %62 = load ptr, ptr %4, align 8
  %63 = getelementptr inbounds %struct.StringSlice_, ptr %62, i32 0, i32 1
  store i64 0, ptr %63, align 8
  br label %64

64:                                               ; preds = %51, %24
  %65 = load { ptr, i64 }, ptr %3, align 8
  ret { ptr, i64 } %65
}