; Function Attrs: nofree norecurse nosync nounwind memory(read, argmem: readwrite, inaccessiblemem: none) uwtable
define dso_local { ptr, i64 } @slice_next_token(ptr nocapture noundef %0, i8 noundef signext %1) local_unnamed_addr #12 {
  %3 = getelementptr inbounds i8, ptr %0, i64 8
  %4 = load i64, ptr %3, align 8
  %.not = icmp eq i64 %4, 0
  %.sroa.0.0.copyload.pre = load ptr, ptr %0, align 8
  br i1 %.not, label %._crit_edge, label %.lr.ph

.lr.ph:                                           ; preds = %2, %13
  %.026 = phi i64 [ %14, %13 ], [ 0, %2 ]
  %5 = getelementptr inbounds i8, ptr %.sroa.0.0.copyload.pre, i64 %.026
  %6 = load i8, ptr %5, align 1
  %7 = icmp eq i8 %6, %1
  br i1 %7, label %8, label %13

8:                                                ; preds = %.lr.ph
  %9 = getelementptr inbounds i8, ptr %.sroa.0.0.copyload.pre, i64 %.026
  %10 = getelementptr inbounds i8, ptr %9, i64 1
  store ptr %10, ptr %0, align 8
  %11 = xor i64 %.026, -1
  %12 = add i64 %4, %11
  br label %16

13:                                               ; preds = %.lr.ph
  %14 = add nuw i64 %.026, 1
  %exitcond.not = icmp eq i64 %14, %4
  br i1 %exitcond.not, label %._crit_edge, label %.lr.ph, !llvm.loop !17

._crit_edge:                                      ; preds = %13, %2
  %15 = getelementptr inbounds i8, ptr %.sroa.0.0.copyload.pre, i64 %4
  store ptr %15, ptr %0, align 8
  br label %16

16:                                               ; preds = %._crit_edge, %8
  %storemerge = phi i64 [ 0, %._crit_edge ], [ %12, %8 ]
  %.sroa.3.0 = phi i64 [ %4, %._crit_edge ], [ %.026, %8 ]
  store i64 %storemerge, ptr %3, align 8
  %.fca.0.insert = insertvalue { ptr, i64 } poison, ptr %.sroa.0.0.copyload.pre, 0
  %.fca.1.insert = insertvalue { ptr, i64 } %.fca.0.insert, i64 %.sroa.3.0, 1
  ret { ptr, i64 } %.fca.1.insert
}